
lukey.elf:     С„РѕСЂРјР°С‚ С„Р°Р№Р»Р° elf32-avr

Р РѕР·РґС–Р»Рё:
Р†РЅРґ РќР°Р·РІР°         Р РѕР·РјС–СЂ    VMA       LMA       Р¤Р°Р№Р»      Р’РёСЂС–РІРЅ
  0 .text         00000680  00000000  00000000  000000b4  2**1
                  CONTENTS, ALLOC, LOAD, READONLY, CODE
  1 .data         0000000a  00800060  00000680  00000734  2**0
                  CONTENTS, ALLOC, LOAD, DATA
  2 .bss          0000001c  0080006a  0080006a  0000073e  2**0
                  ALLOC
  3 .eeprom       00000002  00810000  00810000  0000073e  2**0
                  CONTENTS, ALLOC, LOAD, DATA
  4 .comment      00000011  00000000  00000000  00000740  2**0
                  CONTENTS, READONLY
  5 .note.gnu.avr.deviceinfo 0000003c  00000000  00000000  00000754  2**2
                  CONTENTS, READONLY
  6 .debug_aranges 00000090  00000000  00000000  00000790  2**0
                  CONTENTS, READONLY, DEBUGGING
  7 .debug_info   0000094a  00000000  00000000  00000820  2**0
                  CONTENTS, READONLY, DEBUGGING
  8 .debug_abbrev 000003c4  00000000  00000000  0000116a  2**0
                  CONTENTS, READONLY, DEBUGGING
  9 .debug_line   000005d6  00000000  00000000  0000152e  2**0
                  CONTENTS, READONLY, DEBUGGING
 10 .debug_frame  00000108  00000000  00000000  00001b04  2**2
                  CONTENTS, READONLY, DEBUGGING
 11 .debug_str    000003bd  00000000  00000000  00001c0c  2**0
                  CONTENTS, READONLY, DEBUGGING
 12 .debug_loc    00000198  00000000  00000000  00001fc9  2**0
                  CONTENTS, READONLY, DEBUGGING
 13 .debug_ranges 00000088  00000000  00000000  00002161  2**0
                  CONTENTS, READONLY, DEBUGGING

Р”РёР·Р°СЃРµРјР±Р»СЋРІР°РЅРЅСЏ СЂРѕР·РґС–Р»Сѓ .text:

00000000 <__vectors>:
   0:	18 c0       	rjmp	.+48     	; 0x32 <__ctors_end>
   2:	32 c0       	rjmp	.+100    	; 0x68 <__bad_interrupt>
   4:	31 c0       	rjmp	.+98     	; 0x68 <__bad_interrupt>
   6:	30 c0       	rjmp	.+96     	; 0x68 <__bad_interrupt>
   8:	2f c0       	rjmp	.+94     	; 0x68 <__bad_interrupt>
   a:	2e c0       	rjmp	.+92     	; 0x68 <__bad_interrupt>
   c:	2d c0       	rjmp	.+90     	; 0x68 <__bad_interrupt>
   e:	2c c0       	rjmp	.+88     	; 0x68 <__bad_interrupt>
  10:	2b c0       	rjmp	.+86     	; 0x68 <__bad_interrupt>
  12:	4d c0       	rjmp	.+154    	; 0xae <__vector_9>
  14:	29 c0       	rjmp	.+82     	; 0x68 <__bad_interrupt>
  16:	28 c0       	rjmp	.+80     	; 0x68 <__bad_interrupt>
  18:	27 c0       	rjmp	.+78     	; 0x68 <__bad_interrupt>
  1a:	26 c0       	rjmp	.+76     	; 0x68 <__bad_interrupt>
  1c:	25 c0       	rjmp	.+74     	; 0x68 <__bad_interrupt>
  1e:	24 c0       	rjmp	.+72     	; 0x68 <__bad_interrupt>
  20:	23 c0       	rjmp	.+70     	; 0x68 <__bad_interrupt>
  22:	22 c0       	rjmp	.+68     	; 0x68 <__bad_interrupt>
  24:	21 c0       	rjmp	.+66     	; 0x68 <__bad_interrupt>

00000026 <__trampolines_end>:
  26:	50 5f       	subi	r21, 0xF0	; 240
  28:	38 1a       	sub	r3, r24
  2a:	17 92       	lat	Z, r1
  2c:	90 5e       	subi	r25, 0xE0	; 224
  2e:	10 12       	cpse	r1, r16
  30:	bf 00       	.word	0x00bf	; ????

00000032 <__ctors_end>:
  32:	11 24       	eor	r1, r1
  34:	1f be       	out	0x3f, r1	; 63
  36:	cf e5       	ldi	r28, 0x5F	; 95
  38:	d4 e0       	ldi	r29, 0x04	; 4
  3a:	de bf       	out	0x3e, r29	; 62
  3c:	cd bf       	out	0x3d, r28	; 61

0000003e <__do_copy_data>:
  3e:	10 e0       	ldi	r17, 0x00	; 0
  40:	a0 e6       	ldi	r26, 0x60	; 96
  42:	b0 e0       	ldi	r27, 0x00	; 0
  44:	e0 e8       	ldi	r30, 0x80	; 128
  46:	f6 e0       	ldi	r31, 0x06	; 6
  48:	02 c0       	rjmp	.+4      	; 0x4e <__SREG__+0xf>
  4a:	05 90       	lpm	r0, Z+
  4c:	0d 92       	st	X+, r0
  4e:	aa 36       	cpi	r26, 0x6A	; 106
  50:	b1 07       	cpc	r27, r17
  52:	d9 f7       	brne	.-10     	; 0x4a <__SREG__+0xb>

00000054 <__do_clear_bss>:
  54:	20 e0       	ldi	r18, 0x00	; 0
  56:	aa e6       	ldi	r26, 0x6A	; 106
  58:	b0 e0       	ldi	r27, 0x00	; 0
  5a:	01 c0       	rjmp	.+2      	; 0x5e <.do_clear_bss_start>

0000005c <.do_clear_bss_loop>:
  5c:	1d 92       	st	X+, r1

0000005e <.do_clear_bss_start>:
  5e:	a6 38       	cpi	r26, 0x86	; 134
  60:	b2 07       	cpc	r27, r18
  62:	e1 f7       	brne	.-8      	; 0x5c <.do_clear_bss_loop>
  64:	87 d1       	rcall	.+782    	; 0x374 <main>
  66:	0a c3       	rjmp	.+1556   	; 0x67c <_exit>

00000068 <__bad_interrupt>:
  68:	cb cf       	rjmp	.-106    	; 0x0 <__vectors>

0000006a <Init>:
volatile uint16_t countSetTempVisible = TIME_SET_TEMP_VISIBLE;

void Init(void) 
{
	/* uint8_t i; */
	BUT_DDR &= ~BUT_MASK; //port in
  6a:	87 b3       	in	r24, 0x17	; 23
  6c:	8b 7c       	andi	r24, 0xCB	; 203
  6e:	87 bb       	out	0x17, r24	; 23
	BUT_PORT |= BUT_MASK; //pull-up
  70:	88 b3       	in	r24, 0x18	; 24
  72:	84 63       	ori	r24, 0x34	; 52
  74:	88 bb       	out	0x18, r24	; 24
	LCD_DDR = 0xFF; //port out
  76:	8f ef       	ldi	r24, 0xFF	; 255
  78:	81 bb       	out	0x11, r24	; 17
	DIG_DDR |= DIG_MASK; //port out
  7a:	87 b3       	in	r24, 0x17	; 23
  7c:	81 6c       	ori	r24, 0xC1	; 193
  7e:	87 bb       	out	0x17, r24	; 23
	DIG_PORT &= ~DIG_MASK; //low level
  80:	88 b3       	in	r24, 0x18	; 24
  82:	8e 73       	andi	r24, 0x3E	; 62
  84:	88 bb       	out	0x18, r24	; 24
	CONTR_DDR |= (1 << CONTR_OUT);
  86:	b9 9a       	sbi	0x17, 1	; 23
	CONTR_PORT |= (1 << CONTR_OUT); /* heater off */
  88:	c1 9a       	sbi	0x18, 1	; 24
	sei();
  8a:	78 94       	sei
	workTemp = eeprom_read_word(&workTempEeprom); //read from eeprom temp value
  8c:	80 e0       	ldi	r24, 0x00	; 0
  8e:	90 e0       	ldi	r25, 0x00	; 0
  90:	d0 d2       	rcall	.+1440   	; 0x632 <eeprom_read_word>
  92:	90 93 73 00 	sts	0x0073, r25	; 0x800073 <workTemp+0x1>
  96:	80 93 72 00 	sts	0x0072, r24	; 0x800072 <workTemp>
  9a:	08 95       	ret

0000009c <Timer0Init>:
void Timer0Init(void) 
{
#if(F_CPU != 8000000)
#error ***You must set TCCR0
#endif
	TCCR0 |= (1 << CS02) | (1 << CS00); //T0_PRESC = 1024
  9c:	83 b7       	in	r24, 0x33	; 51
  9e:	85 60       	ori	r24, 0x05	; 5
  a0:	83 bf       	out	0x33, r24	; 51
	TCNT0 = T0_INIT;
  a2:	88 ef       	ldi	r24, 0xF8	; 248
  a4:	82 bf       	out	0x32, r24	; 50
	TIMSK |= (1 << TOIE0); //enable interrupt overllow timer0
  a6:	89 b7       	in	r24, 0x39	; 57
  a8:	81 60       	ori	r24, 0x01	; 1
  aa:	89 bf       	out	0x39, r24	; 57
  ac:	08 95       	ret

000000ae <__vector_9>:
/* 	TCCR1B |= (1 << WGM12); #<{(| Fast PWM 8 bit |)}># */
/* 	TCCR1A |= (1 << COM1A1) | (1 << COM1A0); #<{(| Set 1 if tcnt = ocr, set 0 if tcnt = 0 |)}># */
/* } */

ISR(TIMER0_OVF_vect) 
{
  ae:	1f 92       	push	r1
  b0:	0f 92       	push	r0
  b2:	0f b6       	in	r0, 0x3f	; 63
  b4:	0f 92       	push	r0
  b6:	11 24       	eor	r1, r1
  b8:	8f 93       	push	r24
  ba:	9f 93       	push	r25
	TCNT0 = T0_INIT;
  bc:	88 ef       	ldi	r24, 0xF8	; 248
  be:	82 bf       	out	0x32, r24	; 50
	countTimeKeyScan--;
  c0:	80 91 69 00 	lds	r24, 0x0069	; 0x800069 <countTimeKeyScan>
  c4:	81 50       	subi	r24, 0x01	; 1
  c6:	80 93 69 00 	sts	0x0069, r24	; 0x800069 <countTimeKeyScan>
	countTimeLcdUpdate--;
  ca:	80 91 68 00 	lds	r24, 0x0068	; 0x800068 <countTimeLcdUpdate>
  ce:	81 50       	subi	r24, 0x01	; 1
  d0:	80 93 68 00 	sts	0x0068, r24	; 0x800068 <countTimeLcdUpdate>
	countTimeAdcRead--;
  d4:	80 91 66 00 	lds	r24, 0x0066	; 0x800066 <countTimeAdcRead>
  d8:	81 50       	subi	r24, 0x01	; 1
  da:	80 93 66 00 	sts	0x0066, r24	; 0x800066 <countTimeAdcRead>
	countTimeTempRead--;
  de:	80 91 64 00 	lds	r24, 0x0064	; 0x800064 <countTimeTempRead>
  e2:	90 91 65 00 	lds	r25, 0x0065	; 0x800065 <countTimeTempRead+0x1>
  e6:	01 97       	sbiw	r24, 0x01	; 1
  e8:	90 93 65 00 	sts	0x0065, r25	; 0x800065 <countTimeTempRead+0x1>
  ec:	80 93 64 00 	sts	0x0064, r24	; 0x800064 <countTimeTempRead>
	if (!countTimeKeyScan) 
  f0:	80 91 69 00 	lds	r24, 0x0069	; 0x800069 <countTimeKeyScan>
  f4:	81 11       	cpse	r24, r1
  f6:	08 c0       	rjmp	.+16     	; 0x108 <__vector_9+0x5a>
	{
		countTimeKeyScan = PERIOD_KEY_SCAN;
  f8:	8f e0       	ldi	r24, 0x0F	; 15
  fa:	80 93 69 00 	sts	0x0069, r24	; 0x800069 <countTimeKeyScan>
		flag.keyScan = TRUE;
  fe:	80 91 6e 00 	lds	r24, 0x006E	; 0x80006e <flag>
 102:	81 60       	ori	r24, 0x01	; 1
 104:	80 93 6e 00 	sts	0x006E, r24	; 0x80006e <flag>
	}
	if (!countTimeLcdUpdate) 
 108:	80 91 68 00 	lds	r24, 0x0068	; 0x800068 <countTimeLcdUpdate>
 10c:	81 11       	cpse	r24, r1
 10e:	08 c0       	rjmp	.+16     	; 0x120 <__vector_9+0x72>
	{
		countTimeLcdUpdate = PERIOD_LCD_UPDATE;
 110:	87 e0       	ldi	r24, 0x07	; 7
 112:	80 93 68 00 	sts	0x0068, r24	; 0x800068 <countTimeLcdUpdate>
		flag.lcdUpdate = TRUE;
 116:	80 91 6e 00 	lds	r24, 0x006E	; 0x80006e <flag>
 11a:	82 60       	ori	r24, 0x02	; 2
 11c:	80 93 6e 00 	sts	0x006E, r24	; 0x80006e <flag>
	}
	if (!countTimeAdcRead) 
 120:	80 91 66 00 	lds	r24, 0x0066	; 0x800066 <countTimeAdcRead>
 124:	81 11       	cpse	r24, r1
 126:	08 c0       	rjmp	.+16     	; 0x138 <__vector_9+0x8a>
	{
		countTimeAdcRead = PERIOD_ADC_READ;
 128:	85 e0       	ldi	r24, 0x05	; 5
 12a:	80 93 66 00 	sts	0x0066, r24	; 0x800066 <countTimeAdcRead>
		flag.adcRead = TRUE;
 12e:	80 91 6e 00 	lds	r24, 0x006E	; 0x80006e <flag>
 132:	88 60       	ori	r24, 0x08	; 8
 134:	80 93 6e 00 	sts	0x006E, r24	; 0x80006e <flag>
	}
	if (!countTimeTempRead) 
 138:	80 91 64 00 	lds	r24, 0x0064	; 0x800064 <countTimeTempRead>
 13c:	90 91 65 00 	lds	r25, 0x0065	; 0x800065 <countTimeTempRead+0x1>
 140:	89 2b       	or	r24, r25
 142:	59 f4       	brne	.+22     	; 0x15a <__vector_9+0xac>
	{
		countTimeTempRead = PERIOD_TEMP_UPDATE;
 144:	84 ef       	ldi	r24, 0xF4	; 244
 146:	91 e0       	ldi	r25, 0x01	; 1
 148:	90 93 65 00 	sts	0x0065, r25	; 0x800065 <countTimeTempRead+0x1>
 14c:	80 93 64 00 	sts	0x0064, r24	; 0x800064 <countTimeTempRead>
		flag.readTemp = TRUE;
 150:	80 91 6f 00 	lds	r24, 0x006F	; 0x80006f <flag+0x1>
 154:	82 60       	ori	r24, 0x02	; 2
 156:	80 93 6f 00 	sts	0x006F, r24	; 0x80006f <flag+0x1>
	}
	if (countTimeLcdCancel) 
 15a:	80 91 67 00 	lds	r24, 0x0067	; 0x800067 <countTimeLcdCancel>
 15e:	88 23       	and	r24, r24
 160:	71 f0       	breq	.+28     	; 0x17e <__vector_9+0xd0>
	{
		countTimeLcdCancel--;
 162:	80 91 67 00 	lds	r24, 0x0067	; 0x800067 <countTimeLcdCancel>
 166:	81 50       	subi	r24, 0x01	; 1
 168:	80 93 67 00 	sts	0x0067, r24	; 0x800067 <countTimeLcdCancel>
		if(countTimeLcdCancel == 0)
 16c:	80 91 67 00 	lds	r24, 0x0067	; 0x800067 <countTimeLcdCancel>
 170:	81 11       	cpse	r24, r1
 172:	05 c0       	rjmp	.+10     	; 0x17e <__vector_9+0xd0>
			flag.lcdCancel = TRUE;
 174:	80 91 6e 00 	lds	r24, 0x006E	; 0x80006e <flag>
 178:	84 60       	ori	r24, 0x04	; 4
 17a:	80 93 6e 00 	sts	0x006E, r24	; 0x80006e <flag>
	}
	if (countTimeWriteEeprom) 
 17e:	80 91 62 00 	lds	r24, 0x0062	; 0x800062 <countTimeWriteEeprom>
 182:	90 91 63 00 	lds	r25, 0x0063	; 0x800063 <countTimeWriteEeprom+0x1>
 186:	89 2b       	or	r24, r25
 188:	a1 f0       	breq	.+40     	; 0x1b2 <__vector_9+0x104>
	{
		countTimeWriteEeprom--;
 18a:	80 91 62 00 	lds	r24, 0x0062	; 0x800062 <countTimeWriteEeprom>
 18e:	90 91 63 00 	lds	r25, 0x0063	; 0x800063 <countTimeWriteEeprom+0x1>
 192:	01 97       	sbiw	r24, 0x01	; 1
 194:	90 93 63 00 	sts	0x0063, r25	; 0x800063 <countTimeWriteEeprom+0x1>
 198:	80 93 62 00 	sts	0x0062, r24	; 0x800062 <countTimeWriteEeprom>
		if (countTimeWriteEeprom == 0)
 19c:	80 91 62 00 	lds	r24, 0x0062	; 0x800062 <countTimeWriteEeprom>
 1a0:	90 91 63 00 	lds	r25, 0x0063	; 0x800063 <countTimeWriteEeprom+0x1>
 1a4:	89 2b       	or	r24, r25
 1a6:	29 f4       	brne	.+10     	; 0x1b2 <__vector_9+0x104>
			flag.eepromWrite = TRUE;
 1a8:	80 91 6e 00 	lds	r24, 0x006E	; 0x80006e <flag>
 1ac:	80 61       	ori	r24, 0x10	; 16
 1ae:	80 93 6e 00 	sts	0x006E, r24	; 0x80006e <flag>
	}
	if (countSetTempVisible) 
 1b2:	80 91 60 00 	lds	r24, 0x0060	; 0x800060 <__data_start>
 1b6:	90 91 61 00 	lds	r25, 0x0061	; 0x800061 <__data_start+0x1>
 1ba:	89 2b       	or	r24, r25
 1bc:	a1 f0       	breq	.+40     	; 0x1e6 <__vector_9+0x138>
	{
		countSetTempVisible--;
 1be:	80 91 60 00 	lds	r24, 0x0060	; 0x800060 <__data_start>
 1c2:	90 91 61 00 	lds	r25, 0x0061	; 0x800061 <__data_start+0x1>
 1c6:	01 97       	sbiw	r24, 0x01	; 1
 1c8:	90 93 61 00 	sts	0x0061, r25	; 0x800061 <__data_start+0x1>
 1cc:	80 93 60 00 	sts	0x0060, r24	; 0x800060 <__data_start>
		if (countSetTempVisible == 0)
 1d0:	80 91 60 00 	lds	r24, 0x0060	; 0x800060 <__data_start>
 1d4:	90 91 61 00 	lds	r25, 0x0061	; 0x800061 <__data_start+0x1>
 1d8:	89 2b       	or	r24, r25
 1da:	29 f4       	brne	.+10     	; 0x1e6 <__vector_9+0x138>
			flag.setTempVisible = FALSE;
 1dc:	80 91 6e 00 	lds	r24, 0x006E	; 0x80006e <flag>
 1e0:	8f 77       	andi	r24, 0x7F	; 127
 1e2:	80 93 6e 00 	sts	0x006E, r24	; 0x80006e <flag>
	}
}
 1e6:	9f 91       	pop	r25
 1e8:	8f 91       	pop	r24
 1ea:	0f 90       	pop	r0
 1ec:	0f be       	out	0x3f, r0	; 63
 1ee:	0f 90       	pop	r0
 1f0:	1f 90       	pop	r1
 1f2:	18 95       	reti

000001f4 <KeyScan>:

void KeyScan(void) 
{
	static uint8_t temp = 0;
	uint8_t key;
	keyPressed = 0;
 1f4:	10 92 74 00 	sts	0x0074, r1	; 0x800074 <keyPressed>
	if (bit_is_clear(BUT_PIN,UP))
 1f8:	b5 9b       	sbis	0x16, 5	; 22
 1fa:	0a c0       	rjmp	.+20     	; 0x210 <KeyScan+0x1c>
		key = _UP;
	else if (bit_is_clear(BUT_PIN,DOWN))
 1fc:	b2 9b       	sbis	0x16, 2	; 22
 1fe:	0a c0       	rjmp	.+20     	; 0x214 <KeyScan+0x20>
			keyPressed = key;
		temp++;
		flag.keyScan = FALSE;
		return;
	} else
		temp = 0;
 200:	10 92 6b 00 	sts	0x006B, r1	; 0x80006b <temp.1898>
	flag.keyScan = FALSE;
 204:	80 91 6e 00 	lds	r24, 0x006E	; 0x80006e <flag>
 208:	8e 7f       	andi	r24, 0xFE	; 254
 20a:	80 93 6e 00 	sts	0x006E, r24	; 0x80006e <flag>
 20e:	08 95       	ret
{
	static uint8_t temp = 0;
	uint8_t key;
	keyPressed = 0;
	if (bit_is_clear(BUT_PIN,UP))
		key = _UP;
 210:	91 e0       	ldi	r25, 0x01	; 1
 212:	01 c0       	rjmp	.+2      	; 0x216 <KeyScan+0x22>
	else if (bit_is_clear(BUT_PIN,DOWN))
		key = _DOWN;
 214:	92 e0       	ldi	r25, 0x02	; 2
	/* else if (bit_is_clear(BUT_PIN,SET)) */
	/* 	key = _SET; */
	else
		key = 0;
	if (key) {
		if (temp >= DELAY_LONG) 
 216:	80 91 6b 00 	lds	r24, 0x006B	; 0x80006b <temp.1898>
 21a:	8e 31       	cpi	r24, 0x1E	; 30
 21c:	30 f0       	brcs	.+12     	; 0x22a <KeyScan+0x36>
		{
			temp -= 1;
 21e:	81 50       	subi	r24, 0x01	; 1
 220:	80 93 6b 00 	sts	0x006B, r24	; 0x80006b <temp.1898>
			keyPressed = key;
 224:	90 93 74 00 	sts	0x0074, r25	; 0x800074 <keyPressed>
 228:	ed cf       	rjmp	.-38     	; 0x204 <KeyScan+0x10>
			flag.keyScan = FALSE;
			return;
		}
		if (temp == DELAY_SHORT)
 22a:	81 30       	cpi	r24, 0x01	; 1
 22c:	11 f4       	brne	.+4      	; 0x232 <KeyScan+0x3e>
			keyPressed = key;
 22e:	90 93 74 00 	sts	0x0074, r25	; 0x800074 <keyPressed>
		temp++;
 232:	8f 5f       	subi	r24, 0xFF	; 255
 234:	80 93 6b 00 	sts	0x006B, r24	; 0x80006b <temp.1898>
 238:	e5 cf       	rjmp	.-54     	; 0x204 <KeyScan+0x10>

0000023a <LcdUpdate>:
}

void LcdUpdate(void) 
{
	static uint8_t count = 0;
	DIG_PORT &= ~DIG_MASK;
 23a:	88 b3       	in	r24, 0x18	; 24
 23c:	8e 73       	andi	r24, 0x3E	; 62
 23e:	88 bb       	out	0x18, r24	; 24
	if (count == 0) 
 240:	80 91 6a 00 	lds	r24, 0x006A	; 0x80006a <__data_end>
 244:	81 11       	cpse	r24, r1
 246:	02 c0       	rjmp	.+4      	; 0x24c <LcdUpdate+0x12>
	{
		DIG_PORT |= (1 << DIG_3);
 248:	c6 9a       	sbi	0x18, 6	; 24
 24a:	03 c0       	rjmp	.+6      	; 0x252 <LcdUpdate+0x18>
		LCD_PORT = pgm_read_byte(sevenSegmentCod + dataOut[count]);
	} else 
	if (count == 1) 
 24c:	81 30       	cpi	r24, 0x01	; 1
 24e:	69 f4       	brne	.+26     	; 0x26a <LcdUpdate+0x30>
	{
		DIG_PORT |= (1 << DIG_2);
 250:	c7 9a       	sbi	0x18, 7	; 24
		LCD_PORT = pgm_read_byte(sevenSegmentCod + dataOut[count]);
 252:	e0 91 6a 00 	lds	r30, 0x006A	; 0x80006a <__data_end>
 256:	f0 e0       	ldi	r31, 0x00	; 0
 258:	eb 58       	subi	r30, 0x8B	; 139
 25a:	ff 4f       	sbci	r31, 0xFF	; 255
 25c:	e0 81       	ld	r30, Z
 25e:	f0 e0       	ldi	r31, 0x00	; 0
 260:	ea 5d       	subi	r30, 0xDA	; 218
 262:	ff 4f       	sbci	r31, 0xFF	; 255
 264:	e4 91       	lpm	r30, Z
 266:	e2 bb       	out	0x12, r30	; 18
 268:	15 c0       	rjmp	.+42     	; 0x294 <LcdUpdate+0x5a>
	} else 
	if (count == 2) 
 26a:	82 30       	cpi	r24, 0x02	; 2
 26c:	99 f4       	brne	.+38     	; 0x294 <LcdUpdate+0x5a>
	{
		DIG_PORT |= (1 << DIG_1);
 26e:	c0 9a       	sbi	0x18, 0	; 24
		LCD_PORT = pgm_read_byte(sevenSegmentCod + dataOut[count]);
 270:	e0 91 6a 00 	lds	r30, 0x006A	; 0x80006a <__data_end>
 274:	f0 e0       	ldi	r31, 0x00	; 0
 276:	eb 58       	subi	r30, 0x8B	; 139
 278:	ff 4f       	sbci	r31, 0xFF	; 255
 27a:	e0 81       	ld	r30, Z
 27c:	f0 e0       	ldi	r31, 0x00	; 0
 27e:	ea 5d       	subi	r30, 0xDA	; 218
 280:	ff 4f       	sbci	r31, 0xFF	; 255
 282:	e4 91       	lpm	r30, Z
 284:	e2 bb       	out	0x12, r30	; 18
		if (flag.digPoint)
 286:	80 91 6f 00 	lds	r24, 0x006F	; 0x80006f <flag+0x1>
 28a:	80 ff       	sbrs	r24, 0
 28c:	02 c0       	rjmp	.+4      	; 0x292 <LcdUpdate+0x58>
			LCD_PORT &= ~(1 << DIG_P);
 28e:	94 98       	cbi	0x12, 4	; 18
 290:	01 c0       	rjmp	.+2      	; 0x294 <LcdUpdate+0x5a>
		else LCD_PORT |= (1 << DIG_P);
 292:	94 9a       	sbi	0x12, 4	; 18
	}
	count++;
 294:	80 91 6a 00 	lds	r24, 0x006A	; 0x80006a <__data_end>
 298:	8f 5f       	subi	r24, 0xFF	; 255
	if (count > 2)
 29a:	83 30       	cpi	r24, 0x03	; 3
 29c:	18 f4       	brcc	.+6      	; 0x2a4 <LcdUpdate+0x6a>
		LCD_PORT = pgm_read_byte(sevenSegmentCod + dataOut[count]);
		if (flag.digPoint)
			LCD_PORT &= ~(1 << DIG_P);
		else LCD_PORT |= (1 << DIG_P);
	}
	count++;
 29e:	80 93 6a 00 	sts	0x006A, r24	; 0x80006a <__data_end>
 2a2:	02 c0       	rjmp	.+4      	; 0x2a8 <LcdUpdate+0x6e>
	if (count > 2)
		count = 0;
 2a4:	10 92 6a 00 	sts	0x006A, r1	; 0x80006a <__data_end>
	flag.lcdUpdate = FALSE;
 2a8:	80 91 6e 00 	lds	r24, 0x006E	; 0x80006e <flag>
 2ac:	8d 7f       	andi	r24, 0xFD	; 253
 2ae:	80 93 6e 00 	sts	0x006E, r24	; 0x80006e <flag>
	countTimeLcdCancel = PERIOD_LCD_CANCEL;
 2b2:	83 e0       	ldi	r24, 0x03	; 3
 2b4:	80 93 67 00 	sts	0x0067, r24	; 0x800067 <countTimeLcdCancel>
 2b8:	08 95       	ret

000002ba <LcdCancel>:
}

void LcdCancel(void)
{
	DIG_PORT &= ~DIG_MASK;
 2ba:	88 b3       	in	r24, 0x18	; 24
 2bc:	8e 73       	andi	r24, 0x3E	; 62
 2be:	88 bb       	out	0x18, r24	; 24
	flag.lcdCancel = FALSE;
 2c0:	ee e6       	ldi	r30, 0x6E	; 110
 2c2:	f0 e0       	ldi	r31, 0x00	; 0
 2c4:	80 81       	ld	r24, Z
 2c6:	8b 7f       	andi	r24, 0xFB	; 251
 2c8:	80 83       	st	Z, r24
 2ca:	08 95       	ret

000002cc <ADCInit>:
void ADCInit(void) 
{
#if(F_CPU != 8000000)
#error ***You must set ADCSRA
#endif
	ADCSRA |= (1 << ADPS2) | (1 << ADPS1) | (1 << ADEN); //PRESC F_CPU/64
 2cc:	86 b1       	in	r24, 0x06	; 6
 2ce:	86 68       	ori	r24, 0x86	; 134
 2d0:	86 b9       	out	0x06, r24	; 6
	ADMUX &= ~ADC_VREF_TYPE; //vref
 2d2:	87 b1       	in	r24, 0x07	; 7
 2d4:	8f 73       	andi	r24, 0x3F	; 63
 2d6:	87 b9       	out	0x07, r24	; 7
 2d8:	08 95       	ret

000002da <ADCRead>:
}

int16_t ADCRead(uint8_t chanel) 
{
	ADMUX &= ~ADC_VREF_TYPE; //vref
 2da:	97 b1       	in	r25, 0x07	; 7
 2dc:	9f 73       	andi	r25, 0x3F	; 63
 2de:	97 b9       	out	0x07, r25	; 7
	ADMUX &= 0xF8;
 2e0:	97 b1       	in	r25, 0x07	; 7
 2e2:	98 7f       	andi	r25, 0xF8	; 248
 2e4:	97 b9       	out	0x07, r25	; 7
	ADMUX |= chanel;
 2e6:	97 b1       	in	r25, 0x07	; 7
 2e8:	89 2b       	or	r24, r25
 2ea:	87 b9       	out	0x07, r24	; 7
	#else
		//round up by default
		__ticks_dc = (uint32_t)(ceil(fabs(__tmp)));
	#endif

	__builtin_avr_delay_cycles(__ticks_dc);
 2ec:	8a e1       	ldi	r24, 0x1A	; 26
 2ee:	8a 95       	dec	r24
 2f0:	f1 f7       	brne	.-4      	; 0x2ee <ADCRead+0x14>
 2f2:	00 c0       	rjmp	.+0      	; 0x2f4 <ADCRead+0x1a>
	_delay_us(10); //delay needed for stabilization of the ACD input voltag
	ADCSRA |= (1 << ADSC); //start convertion
 2f4:	36 9a       	sbi	0x06, 6	; 6
	while ((ADCSRA & (1 << ADIF)) == 0)
 2f6:	34 9b       	sbis	0x06, 4	; 6
 2f8:	fe cf       	rjmp	.-4      	; 0x2f6 <ADCRead+0x1c>
		; //wait for complete conversion
	ADCSRA |= (1 << ADIF);
 2fa:	34 9a       	sbi	0x06, 4	; 6
	flag.adcRead = FALSE;
 2fc:	80 91 6e 00 	lds	r24, 0x006E	; 0x80006e <flag>
 300:	87 7f       	andi	r24, 0xF7	; 247
 302:	80 93 6e 00 	sts	0x006E, r24	; 0x80006e <flag>
	return ADCW;
 306:	84 b1       	in	r24, 0x04	; 4
 308:	95 b1       	in	r25, 0x05	; 5
}
 30a:	08 95       	ret

0000030c <ResultBcd>:

void ResultBcd(uint16_t data) 
{
 30c:	cf 93       	push	r28
 30e:	df 93       	push	r29
 310:	ec 01       	movw	r28, r24
	/* 	{ */
	/* 		dataOut[i] = 10; //виводимо на дисплей рисочки */
	/* 	} */
	/* 	return; */
	/* } */
	dataOut[0] = data / 100;
 312:	e5 e7       	ldi	r30, 0x75	; 117
 314:	f0 e0       	ldi	r31, 0x00	; 0
 316:	64 e6       	ldi	r22, 0x64	; 100
 318:	70 e0       	ldi	r23, 0x00	; 0
 31a:	64 d1       	rcall	.+712    	; 0x5e4 <__udivmodhi4>
 31c:	60 83       	st	Z, r22
	dataOut[1] = (data / 10) % 10;
 31e:	2a e0       	ldi	r18, 0x0A	; 10
 320:	30 e0       	ldi	r19, 0x00	; 0
 322:	ce 01       	movw	r24, r28
 324:	b9 01       	movw	r22, r18
 326:	5e d1       	rcall	.+700    	; 0x5e4 <__udivmodhi4>
 328:	48 2f       	mov	r20, r24
 32a:	cb 01       	movw	r24, r22
 32c:	b9 01       	movw	r22, r18
 32e:	5a d1       	rcall	.+692    	; 0x5e4 <__udivmodhi4>
 330:	81 83       	std	Z+1, r24	; 0x01
	dataOut[2] = data % 10;
 332:	42 83       	std	Z+2, r20	; 0x02
}
 334:	df 91       	pop	r29
 336:	cf 91       	pop	r28
 338:	08 95       	ret

0000033a <SaveEepromMode>:

void SaveEepromMode(void) 
{
	if (flag.tempEepromWrite) 
 33a:	80 91 6e 00 	lds	r24, 0x006E	; 0x80006e <flag>
 33e:	86 ff       	sbrs	r24, 6
 340:	0c c0       	rjmp	.+24     	; 0x35a <SaveEepromMode+0x20>
	{
		eeprom_write_word(&workTempEeprom, workTemp);
 342:	60 91 72 00 	lds	r22, 0x0072	; 0x800072 <workTemp>
 346:	70 91 73 00 	lds	r23, 0x0073	; 0x800073 <workTemp+0x1>
 34a:	80 e0       	ldi	r24, 0x00	; 0
 34c:	90 e0       	ldi	r25, 0x00	; 0
 34e:	76 d1       	rcall	.+748    	; 0x63c <eeprom_write_word>
		flag.tempEepromWrite = FALSE;
 350:	80 91 6e 00 	lds	r24, 0x006E	; 0x80006e <flag>
 354:	8f 7b       	andi	r24, 0xBF	; 191
 356:	80 93 6e 00 	sts	0x006E, r24	; 0x80006e <flag>
	}
	flag.eepromWrite = FALSE;
 35a:	80 91 6e 00 	lds	r24, 0x006E	; 0x80006e <flag>
 35e:	8f 7e       	andi	r24, 0xEF	; 239
 360:	80 93 6e 00 	sts	0x006E, r24	; 0x80006e <flag>
 364:	08 95       	ret

00000366 <ShowError>:
}

void ShowError(void)
{
	dataOut[0] = 10;
 366:	e5 e7       	ldi	r30, 0x75	; 117
 368:	f0 e0       	ldi	r31, 0x00	; 0
 36a:	8a e0       	ldi	r24, 0x0A	; 10
 36c:	80 83       	st	Z, r24
	dataOut[1] = 10;
 36e:	81 83       	std	Z+1, r24	; 0x01
	dataOut[2] = 10;
 370:	82 83       	std	Z+2, r24	; 0x02
 372:	08 95       	ret

00000374 <main>:
int16_t diffErr;
int16_t tempTemp = 0;

int main(void)
{
	Timer0Init();
 374:	93 de       	rcall	.-730    	; 0x9c <Timer0Init>
	/* Timer1Init(); */
	ADCInit();
 376:	aa df       	rcall	.-172    	; 0x2cc <ADCInit>
	Init();
 378:	78 de       	rcall	.-784    	; 0x6a <Init>
	while(BUT_PIN & (1 << TEST_SOLD))
 37a:	b4 9b       	sbis	0x16, 4	; 22
 37c:	11 c0       	rjmp	.+34     	; 0x3a0 <main+0x2c>
	{
		//TODO
		ShowError();
 37e:	f3 df       	rcall	.-26     	; 0x366 <ShowError>
		if (flag.lcdUpdate) 
 380:	80 91 6e 00 	lds	r24, 0x006E	; 0x80006e <flag>
 384:	81 ff       	sbrs	r24, 1
 386:	06 c0       	rjmp	.+12     	; 0x394 <main+0x20>
		{
			flag.digPoint = 0;
 388:	80 91 6f 00 	lds	r24, 0x006F	; 0x80006f <flag+0x1>
 38c:	8e 7f       	andi	r24, 0xFE	; 254
 38e:	80 93 6f 00 	sts	0x006F, r24	; 0x80006f <flag+0x1>
			LcdUpdate();	
 392:	53 df       	rcall	.-346    	; 0x23a <LcdUpdate>
		}
		if (flag.lcdCancel) 
 394:	80 91 6e 00 	lds	r24, 0x006E	; 0x80006e <flag>
 398:	82 ff       	sbrs	r24, 2
 39a:	ef cf       	rjmp	.-34     	; 0x37a <main+0x6>
		{
			LcdCancel();	
 39c:	8e df       	rcall	.-228    	; 0x2ba <LcdCancel>
 39e:	ed cf       	rjmp	.-38     	; 0x37a <main+0x6>
		}
	}
	//дві секунди показуємо встановлену температуру
	countSetTempVisible = TIME_SET_TEMP_VISIBLE;
 3a0:	80 ed       	ldi	r24, 0xD0	; 208
 3a2:	97 e0       	ldi	r25, 0x07	; 7
 3a4:	90 93 61 00 	sts	0x0061, r25	; 0x800061 <__data_start+0x1>
 3a8:	80 93 60 00 	sts	0x0060, r24	; 0x800060 <__data_start>
	flag.setTempVisible = TRUE;
 3ac:	80 91 6e 00 	lds	r24, 0x006E	; 0x80006e <flag>
 3b0:	80 68       	ori	r24, 0x80	; 128
 3b2:	80 93 6e 00 	sts	0x006E, r24	; 0x80006e <flag>
				 * Зчитування adc 10мс
				 * на одиницю регулюючого сигналу припадає 1 півперіод (2%)
				 */
				int16_t tempAdc;
				adcResult = ADCRead(0);
				tempAdc = (workTemp * 14) / 10;//переведення встановленої температури
 3b6:	9e e0       	ldi	r25, 0x0E	; 14
 3b8:	39 2e       	mov	r3, r25
 3ba:	ca e0       	ldi	r28, 0x0A	; 10
 3bc:	d0 e0       	ldi	r29, 0x00	; 0
				pwmCounter ++;
				tempTemp += adcResult;
				if(pwmCounter >= 40)
				{
					pwmCounter = 0;
					temperatura = tempTemp / 56;
 3be:	28 e3       	ldi	r18, 0x38	; 56
 3c0:	42 2e       	mov	r4, r18
 3c2:	51 2c       	mov	r5, r1
					else if(keyPressed == _DOWN)
					{
						workTemp --;
						if(workTemp < MIN_TEMP)
							workTemp = MIN_TEMP;
						countTimeWriteEeprom = TIME_WRITE_EEPROM;
 3c4:	08 eb       	ldi	r16, 0xB8	; 184
 3c6:	1b e0       	ldi	r17, 0x0B	; 11
						flag.tempEepromWrite = TRUE;
						countSetTempVisible = TIME_SET_TEMP_VISIBLE;
 3c8:	30 ed       	ldi	r19, 0xD0	; 208
 3ca:	e3 2e       	mov	r14, r19
 3cc:	37 e0       	ldi	r19, 0x07	; 7
 3ce:	f3 2e       	mov	r15, r19
					}
					else if(keyPressed == _DOWN)
					{
						workTemp --;
						if(workTemp < MIN_TEMP)
							workTemp = MIN_TEMP;
 3d0:	44 e6       	ldi	r20, 0x64	; 100
 3d2:	64 2e       	mov	r6, r20
 3d4:	71 2c       	mov	r7, r1
				{
					if(keyPressed == _UP)
					{
						workTemp++;
						if(workTemp > MAX_TEMP)
							workTemp = MAX_TEMP;
 3d6:	50 e9       	ldi	r21, 0x90	; 144
 3d8:	c5 2e       	mov	r12, r21
 3da:	dd 24       	eor	r13, r13
 3dc:	d3 94       	inc	r13
	countSetTempVisible = TIME_SET_TEMP_VISIBLE;
	flag.setTempVisible = TRUE;
	/* TCCR1A |= (1 << CS10) | (1 << CS12) #<{(| start timer1 clkio/1024 |)}># */
	while(1)
	{
		if (BUT_PIN & (1 << TEST_SOLD)) 
 3de:	b4 9b       	sbis	0x16, 4	; 22
 3e0:	16 c0       	rjmp	.+44     	; 0x40e <__FUSE_REGION_LENGTH__+0xe>
		{
			//TODO
			/* TCCR1A &= ~((1 << CS10) | (1 << CS11) | (1 << CS12)); #<{(| Stop timer1 |)}># */
			/* PORTB |= (1 << PB1);                #<{(| Heater off |)}># */
			ShowError();
 3e2:	c1 df       	rcall	.-126    	; 0x366 <ShowError>
			flag.noheater = 1;
 3e4:	80 91 6f 00 	lds	r24, 0x006F	; 0x80006f <flag+0x1>
 3e8:	84 60       	ori	r24, 0x04	; 4
 3ea:	80 93 6f 00 	sts	0x006F, r24	; 0x80006f <flag+0x1>
			if (flag.lcdUpdate) 
 3ee:	80 91 6e 00 	lds	r24, 0x006E	; 0x80006e <flag>
 3f2:	81 ff       	sbrs	r24, 1
 3f4:	06 c0       	rjmp	.+12     	; 0x402 <__FUSE_REGION_LENGTH__+0x2>
			{
				flag.digPoint = 0;
 3f6:	80 91 6f 00 	lds	r24, 0x006F	; 0x80006f <flag+0x1>
 3fa:	8e 7f       	andi	r24, 0xFE	; 254
 3fc:	80 93 6f 00 	sts	0x006F, r24	; 0x80006f <flag+0x1>
				LcdUpdate();		
 400:	1c df       	rcall	.-456    	; 0x23a <LcdUpdate>
			}
			if (flag.lcdCancel) 
 402:	80 91 6e 00 	lds	r24, 0x006E	; 0x80006e <flag>
 406:	82 ff       	sbrs	r24, 2
 408:	ea cf       	rjmp	.-44     	; 0x3de <main+0x6a>
			{
				LcdCancel();	
 40a:	57 df       	rcall	.-338    	; 0x2ba <LcdCancel>
 40c:	e8 cf       	rjmp	.-48     	; 0x3de <main+0x6a>
			}
		}
		else
		{
			if (flag.noheater == 1) 
 40e:	80 91 6f 00 	lds	r24, 0x006F	; 0x80006f <flag+0x1>
 412:	82 ff       	sbrs	r24, 2
 414:	05 c0       	rjmp	.+10     	; 0x420 <__FUSE_REGION_LENGTH__+0x20>
			{
				/* TCCR1A |= (1 << CS10) | (1 << CS12) #<{(| start timer1 clkio/1024 |)}># */
				flag.noheater = 0;	
 416:	80 91 6f 00 	lds	r24, 0x006F	; 0x80006f <flag+0x1>
 41a:	8b 7f       	andi	r24, 0xFB	; 251
 41c:	80 93 6f 00 	sts	0x006F, r24	; 0x80006f <flag+0x1>
			}
			if(flag.keyScan)
 420:	80 91 6e 00 	lds	r24, 0x006E	; 0x80006e <flag>
 424:	80 ff       	sbrs	r24, 0
 426:	3a c0       	rjmp	.+116    	; 0x49c <__stack+0x3d>
			{
				KeyScan();
 428:	e5 de       	rcall	.-566    	; 0x1f4 <KeyScan>
				if(keyPressed)
 42a:	80 91 74 00 	lds	r24, 0x0074	; 0x800074 <keyPressed>
 42e:	88 23       	and	r24, r24
 430:	a9 f1       	breq	.+106    	; 0x49c <__stack+0x3d>
				{
					if(keyPressed == _UP)
 432:	81 30       	cpi	r24, 0x01	; 1
 434:	71 f4       	brne	.+28     	; 0x452 <__FUSE_REGION_LENGTH__+0x52>
					{
						workTemp++;
 436:	80 91 72 00 	lds	r24, 0x0072	; 0x800072 <workTemp>
 43a:	90 91 73 00 	lds	r25, 0x0073	; 0x800073 <workTemp+0x1>
 43e:	01 96       	adiw	r24, 0x01	; 1
						if(workTemp > MAX_TEMP)
 440:	81 39       	cpi	r24, 0x91	; 145
 442:	21 e0       	ldi	r18, 0x01	; 1
 444:	92 07       	cpc	r25, r18
 446:	7c f0       	brlt	.+30     	; 0x466 <__stack+0x7>
							workTemp = MAX_TEMP;
 448:	d0 92 73 00 	sts	0x0073, r13	; 0x800073 <workTemp+0x1>
 44c:	c0 92 72 00 	sts	0x0072, r12	; 0x800072 <workTemp>
 450:	13 c0       	rjmp	.+38     	; 0x478 <__stack+0x19>
						countTimeWriteEeprom = TIME_WRITE_EEPROM;
						flag.tempEepromWrite = TRUE;
						countSetTempVisible = TIME_SET_TEMP_VISIBLE;
						flag.setTempVisible = TRUE;
					}
					else if(keyPressed == _DOWN)
 452:	82 30       	cpi	r24, 0x02	; 2
 454:	19 f5       	brne	.+70     	; 0x49c <__stack+0x3d>
					{
						workTemp --;
 456:	80 91 72 00 	lds	r24, 0x0072	; 0x800072 <workTemp>
 45a:	90 91 73 00 	lds	r25, 0x0073	; 0x800073 <workTemp+0x1>
 45e:	01 97       	sbiw	r24, 0x01	; 1
						if(workTemp < MIN_TEMP)
 460:	84 36       	cpi	r24, 0x64	; 100
 462:	91 05       	cpc	r25, r1
 464:	2c f0       	brlt	.+10     	; 0x470 <__stack+0x11>
						countSetTempVisible = TIME_SET_TEMP_VISIBLE;
						flag.setTempVisible = TRUE;
					}
					else if(keyPressed == _DOWN)
					{
						workTemp --;
 466:	90 93 73 00 	sts	0x0073, r25	; 0x800073 <workTemp+0x1>
 46a:	80 93 72 00 	sts	0x0072, r24	; 0x800072 <workTemp>
 46e:	04 c0       	rjmp	.+8      	; 0x478 <__stack+0x19>
						if(workTemp < MIN_TEMP)
							workTemp = MIN_TEMP;
 470:	70 92 73 00 	sts	0x0073, r7	; 0x800073 <workTemp+0x1>
 474:	60 92 72 00 	sts	0x0072, r6	; 0x800072 <workTemp>
						countTimeWriteEeprom = TIME_WRITE_EEPROM;
 478:	10 93 63 00 	sts	0x0063, r17	; 0x800063 <countTimeWriteEeprom+0x1>
 47c:	00 93 62 00 	sts	0x0062, r16	; 0x800062 <countTimeWriteEeprom>
						flag.tempEepromWrite = TRUE;
 480:	80 91 6e 00 	lds	r24, 0x006E	; 0x80006e <flag>
 484:	80 64       	ori	r24, 0x40	; 64
 486:	80 93 6e 00 	sts	0x006E, r24	; 0x80006e <flag>
						countSetTempVisible = TIME_SET_TEMP_VISIBLE;
 48a:	f0 92 61 00 	sts	0x0061, r15	; 0x800061 <__data_start+0x1>
 48e:	e0 92 60 00 	sts	0x0060, r14	; 0x800060 <__data_start>
						flag.setTempVisible = TRUE;
 492:	80 91 6e 00 	lds	r24, 0x006E	; 0x80006e <flag>
 496:	80 68       	ori	r24, 0x80	; 128
 498:	80 93 6e 00 	sts	0x006E, r24	; 0x80006e <flag>
					}
				}
			}
			if(flag.adcRead)
 49c:	80 91 6e 00 	lds	r24, 0x006E	; 0x80006e <flag>
 4a0:	83 ff       	sbrs	r24, 3
 4a2:	7b c0       	rjmp	.+246    	; 0x59a <__stack+0x13b>
				 * Період ШІМ 100мс
				 * Зчитування adc 10мс
				 * на одиницю регулюючого сигналу припадає 1 півперіод (2%)
				 */
				int16_t tempAdc;
				adcResult = ADCRead(0);
 4a4:	80 e0       	ldi	r24, 0x00	; 0
 4a6:	19 df       	rcall	.-462    	; 0x2da <ADCRead>
 4a8:	5c 01       	movw	r10, r24
 4aa:	90 93 71 00 	sts	0x0071, r25	; 0x800071 <adcResult+0x1>
 4ae:	80 93 70 00 	sts	0x0070, r24	; 0x800070 <adcResult>
				tempAdc = (workTemp * 14) / 10;//переведення встановленої температури
 4b2:	20 91 72 00 	lds	r18, 0x0072	; 0x800072 <workTemp>
 4b6:	30 91 73 00 	lds	r19, 0x0073	; 0x800073 <workTemp+0x1>
 4ba:	32 9e       	mul	r3, r18
 4bc:	c0 01       	movw	r24, r0
 4be:	33 9e       	mul	r3, r19
 4c0:	90 0d       	add	r25, r0
 4c2:	11 24       	eor	r1, r1
 4c4:	be 01       	movw	r22, r28
 4c6:	a2 d0       	rcall	.+324    	; 0x60c <__divmodhi4>
 4c8:	fb 01       	movw	r30, r22
				//відповідно до adc
				pwmCounter ++;
 4ca:	20 91 7c 00 	lds	r18, 0x007C	; 0x80007c <pwmCounter>
 4ce:	30 91 7d 00 	lds	r19, 0x007D	; 0x80007d <pwmCounter+0x1>
 4d2:	2f 5f       	subi	r18, 0xFF	; 255
 4d4:	3f 4f       	sbci	r19, 0xFF	; 255
 4d6:	30 93 7d 00 	sts	0x007D, r19	; 0x80007d <pwmCounter+0x1>
 4da:	20 93 7c 00 	sts	0x007C, r18	; 0x80007c <pwmCounter>
				tempTemp += adcResult;
 4de:	80 91 6c 00 	lds	r24, 0x006C	; 0x80006c <tempTemp>
 4e2:	90 91 6d 00 	lds	r25, 0x006D	; 0x80006d <tempTemp+0x1>
 4e6:	8a 0d       	add	r24, r10
 4e8:	9b 1d       	adc	r25, r11
 4ea:	90 93 6d 00 	sts	0x006D, r25	; 0x80006d <tempTemp+0x1>
 4ee:	80 93 6c 00 	sts	0x006C, r24	; 0x80006c <tempTemp>
				if(pwmCounter >= 40)
 4f2:	28 32       	cpi	r18, 0x28	; 40
 4f4:	31 05       	cpc	r19, r1
 4f6:	74 f0       	brlt	.+28     	; 0x514 <__stack+0xb5>
				{
					pwmCounter = 0;
 4f8:	10 92 7d 00 	sts	0x007D, r1	; 0x80007d <pwmCounter+0x1>
 4fc:	10 92 7c 00 	sts	0x007C, r1	; 0x80007c <pwmCounter>
					temperatura = tempTemp / 56;
 500:	b2 01       	movw	r22, r4
 502:	84 d0       	rcall	.+264    	; 0x60c <__divmodhi4>
 504:	70 93 79 00 	sts	0x0079, r23	; 0x800079 <temperatura+0x1>
 508:	60 93 78 00 	sts	0x0078, r22	; 0x800078 <temperatura>
					tempTemp = 0;
 50c:	10 92 6d 00 	sts	0x006D, r1	; 0x80006d <tempTemp+0x1>
 510:	10 92 6c 00 	sts	0x006C, r1	; 0x80006c <tempTemp>
				}
				error = tempAdc - adcResult;
 514:	ea 19       	sub	r30, r10
 516:	fb 09       	sbc	r31, r11
 518:	f0 93 83 00 	sts	0x0083, r31	; 0x800083 <error+0x1>
 51c:	e0 93 82 00 	sts	0x0082, r30	; 0x800082 <error>
				diffErr = error - preErr;
 520:	80 91 7a 00 	lds	r24, 0x007A	; 0x80007a <preErr>
 524:	90 91 7b 00 	lds	r25, 0x007B	; 0x80007b <preErr+0x1>
 528:	9f 01       	movw	r18, r30
 52a:	28 1b       	sub	r18, r24
 52c:	39 0b       	sbc	r19, r25
 52e:	30 93 7f 00 	sts	0x007F, r19	; 0x80007f <diffErr+0x1>
 532:	20 93 7e 00 	sts	0x007E, r18	; 0x80007e <diffErr>
				/* pwm = 2 * error + integralErr + 2 * diffErr; */
				pwm = error + integralErr / 10 + 2 * diffErr;
 536:	80 90 80 00 	lds	r8, 0x0080	; 0x800080 <integralErr>
 53a:	90 90 81 00 	lds	r9, 0x0081	; 0x800081 <integralErr+0x1>
 53e:	c4 01       	movw	r24, r8
 540:	be 01       	movw	r22, r28
 542:	64 d0       	rcall	.+200    	; 0x60c <__divmodhi4>
 544:	6e 0f       	add	r22, r30
 546:	7f 1f       	adc	r23, r31
 548:	22 0f       	add	r18, r18
 54a:	33 1f       	adc	r19, r19
 54c:	26 0f       	add	r18, r22
 54e:	37 1f       	adc	r19, r23
 550:	30 93 85 00 	sts	0x0085, r19	; 0x800085 <pwm+0x1>
 554:	20 93 84 00 	sts	0x0084, r18	; 0x800084 <pwm>
				/* if(pwm >=0 && pwm <= 20) */
					integralErr += error;
 558:	8e 0e       	add	r8, r30
 55a:	9f 1e       	adc	r9, r31
 55c:	90 92 81 00 	sts	0x0081, r9	; 0x800081 <integralErr+0x1>
 560:	80 92 80 00 	sts	0x0080, r8	; 0x800080 <integralErr>
				/* if(integralErr > 10) */
				/* 	integralErr = 10; */
				preErr = error;//поточна помилка стає попередньою (використовується для розрахунку
 564:	f0 93 7b 00 	sts	0x007B, r31	; 0x80007b <preErr+0x1>
 568:	e0 93 7a 00 	sts	0x007A, r30	; 0x80007a <preErr>
				/*
				 * якщо коротке замикання або обрив датчика ,
				 * відключаємо підігрів
				 */
				/* if(pwm < pwmCounter || adcResult > 1000 || adcResult < 3) */
				if(pwm < pwmCounter || adcResult > 1000)
 56c:	80 91 7c 00 	lds	r24, 0x007C	; 0x80007c <pwmCounter>
 570:	90 91 7d 00 	lds	r25, 0x007D	; 0x80007d <pwmCounter+0x1>
 574:	28 17       	cp	r18, r24
 576:	39 07       	cpc	r19, r25
 578:	2c f0       	brlt	.+10     	; 0x584 <__stack+0x125>
 57a:	89 ee       	ldi	r24, 0xE9	; 233
 57c:	a8 16       	cp	r10, r24
 57e:	83 e0       	ldi	r24, 0x03	; 3
 580:	b8 06       	cpc	r11, r24
 582:	2c f0       	brlt	.+10     	; 0x58e <__stack+0x12f>
				{
					CONTR_PORT |= (1 << CONTR_OUT);
 584:	c1 9a       	sbi	0x18, 1	; 24
					flag.digPoint = 0;
 586:	80 91 6f 00 	lds	r24, 0x006F	; 0x80006f <flag+0x1>
 58a:	8e 7f       	andi	r24, 0xFE	; 254
 58c:	04 c0       	rjmp	.+8      	; 0x596 <__stack+0x137>
				}
				else {
					CONTR_PORT &= ~(1 << CONTR_OUT);
 58e:	c1 98       	cbi	0x18, 1	; 24
					flag.digPoint = 1;// індикація нагріву
 590:	80 91 6f 00 	lds	r24, 0x006F	; 0x80006f <flag+0x1>
 594:	81 60       	ori	r24, 0x01	; 1
 596:	80 93 6f 00 	sts	0x006F, r24	; 0x80006f <flag+0x1>
				}
			}
			if(flag.setTempVisible)
 59a:	80 91 6e 00 	lds	r24, 0x006E	; 0x80006e <flag>
 59e:	87 ff       	sbrs	r24, 7
 5a0:	05 c0       	rjmp	.+10     	; 0x5ac <__stack+0x14d>
			{
				ResultBcd(workTemp);
 5a2:	80 91 72 00 	lds	r24, 0x0072	; 0x800072 <workTemp>
 5a6:	90 91 73 00 	lds	r25, 0x0073	; 0x800073 <workTemp+0x1>
 5aa:	04 c0       	rjmp	.+8      	; 0x5b4 <__stack+0x155>
			}
			else 
			{
				ResultBcd(temperatura);
 5ac:	80 91 78 00 	lds	r24, 0x0078	; 0x800078 <temperatura>
 5b0:	90 91 79 00 	lds	r25, 0x0079	; 0x800079 <temperatura+0x1>
 5b4:	ab de       	rcall	.-682    	; 0x30c <ResultBcd>
			}
			//обновлення індикації кожних 5мс
			if(flag.lcdUpdate)
 5b6:	80 91 6e 00 	lds	r24, 0x006E	; 0x80006e <flag>
 5ba:	81 fd       	sbrc	r24, 1
			{
				LcdUpdate();
 5bc:	3e de       	rcall	.-900    	; 0x23a <LcdUpdate>
			}
			if (flag.lcdCancel) 
 5be:	80 91 6e 00 	lds	r24, 0x006E	; 0x80006e <flag>
 5c2:	82 fd       	sbrc	r24, 2
			{
				LcdCancel();	
 5c4:	7a de       	rcall	.-780    	; 0x2ba <LcdCancel>
			}
			//зчитування температури кожної пів секунди
			if(flag.readTemp)
 5c6:	80 91 6f 00 	lds	r24, 0x006F	; 0x80006f <flag+0x1>
 5ca:	81 ff       	sbrs	r24, 1
 5cc:	05 c0       	rjmp	.+10     	; 0x5d8 <__stack+0x179>
			{
				flag.readTemp = FALSE;
 5ce:	80 91 6f 00 	lds	r24, 0x006F	; 0x80006f <flag+0x1>
 5d2:	8d 7f       	andi	r24, 0xFD	; 253
 5d4:	80 93 6f 00 	sts	0x006F, r24	; 0x80006f <flag+0x1>
				/* temperatura = (adcResult * 10) / 14; */
			}
			if(flag.eepromWrite)
 5d8:	80 91 6e 00 	lds	r24, 0x006E	; 0x80006e <flag>
 5dc:	84 ff       	sbrs	r24, 4
 5de:	ff ce       	rjmp	.-514    	; 0x3de <main+0x6a>
			{
				SaveEepromMode();
 5e0:	ac de       	rcall	.-680    	; 0x33a <SaveEepromMode>
 5e2:	fd ce       	rjmp	.-518    	; 0x3de <main+0x6a>

000005e4 <__udivmodhi4>:
 5e4:	aa 1b       	sub	r26, r26
 5e6:	bb 1b       	sub	r27, r27
 5e8:	51 e1       	ldi	r21, 0x11	; 17
 5ea:	07 c0       	rjmp	.+14     	; 0x5fa <__udivmodhi4_ep>

000005ec <__udivmodhi4_loop>:
 5ec:	aa 1f       	adc	r26, r26
 5ee:	bb 1f       	adc	r27, r27
 5f0:	a6 17       	cp	r26, r22
 5f2:	b7 07       	cpc	r27, r23
 5f4:	10 f0       	brcs	.+4      	; 0x5fa <__udivmodhi4_ep>
 5f6:	a6 1b       	sub	r26, r22
 5f8:	b7 0b       	sbc	r27, r23

000005fa <__udivmodhi4_ep>:
 5fa:	88 1f       	adc	r24, r24
 5fc:	99 1f       	adc	r25, r25
 5fe:	5a 95       	dec	r21
 600:	a9 f7       	brne	.-22     	; 0x5ec <__udivmodhi4_loop>
 602:	80 95       	com	r24
 604:	90 95       	com	r25
 606:	bc 01       	movw	r22, r24
 608:	cd 01       	movw	r24, r26
 60a:	08 95       	ret

0000060c <__divmodhi4>:
 60c:	97 fb       	bst	r25, 7
 60e:	07 2e       	mov	r0, r23
 610:	16 f4       	brtc	.+4      	; 0x616 <__divmodhi4+0xa>
 612:	00 94       	com	r0
 614:	06 d0       	rcall	.+12     	; 0x622 <__divmodhi4_neg1>
 616:	77 fd       	sbrc	r23, 7
 618:	08 d0       	rcall	.+16     	; 0x62a <__divmodhi4_neg2>
 61a:	e4 df       	rcall	.-56     	; 0x5e4 <__udivmodhi4>
 61c:	07 fc       	sbrc	r0, 7
 61e:	05 d0       	rcall	.+10     	; 0x62a <__divmodhi4_neg2>
 620:	3e f4       	brtc	.+14     	; 0x630 <__divmodhi4_exit>

00000622 <__divmodhi4_neg1>:
 622:	90 95       	com	r25
 624:	81 95       	neg	r24
 626:	9f 4f       	sbci	r25, 0xFF	; 255
 628:	08 95       	ret

0000062a <__divmodhi4_neg2>:
 62a:	70 95       	com	r23
 62c:	61 95       	neg	r22
 62e:	7f 4f       	sbci	r23, 0xFF	; 255

00000630 <__divmodhi4_exit>:
 630:	08 95       	ret

00000632 <eeprom_read_word>:
 632:	a8 e1       	ldi	r26, 0x18	; 24
 634:	b0 e0       	ldi	r27, 0x00	; 0
 636:	42 e0       	ldi	r20, 0x02	; 2
 638:	50 e0       	ldi	r21, 0x00	; 0
 63a:	05 c0       	rjmp	.+10     	; 0x646 <eeprom_read_blraw>

0000063c <eeprom_write_word>:
 63c:	12 d0       	rcall	.+36     	; 0x662 <eeprom_write_byte>
 63e:	27 2f       	mov	r18, r23
 640:	11 c0       	rjmp	.+34     	; 0x664 <eeprom_write_r18>

00000642 <eeprom_read_block>:
 642:	dc 01       	movw	r26, r24
 644:	cb 01       	movw	r24, r22

00000646 <eeprom_read_blraw>:
 646:	fc 01       	movw	r30, r24
 648:	e1 99       	sbic	0x1c, 1	; 28
 64a:	fe cf       	rjmp	.-4      	; 0x648 <eeprom_read_blraw+0x2>
 64c:	06 c0       	rjmp	.+12     	; 0x65a <eeprom_read_blraw+0x14>
 64e:	ff bb       	out	0x1f, r31	; 31
 650:	ee bb       	out	0x1e, r30	; 30
 652:	e0 9a       	sbi	0x1c, 0	; 28
 654:	31 96       	adiw	r30, 0x01	; 1
 656:	0d b2       	in	r0, 0x1d	; 29
 658:	0d 92       	st	X+, r0
 65a:	41 50       	subi	r20, 0x01	; 1
 65c:	50 40       	sbci	r21, 0x00	; 0
 65e:	b8 f7       	brcc	.-18     	; 0x64e <eeprom_read_blraw+0x8>
 660:	08 95       	ret

00000662 <eeprom_write_byte>:
 662:	26 2f       	mov	r18, r22

00000664 <eeprom_write_r18>:
 664:	e1 99       	sbic	0x1c, 1	; 28
 666:	fe cf       	rjmp	.-4      	; 0x664 <eeprom_write_r18>
 668:	9f bb       	out	0x1f, r25	; 31
 66a:	8e bb       	out	0x1e, r24	; 30
 66c:	2d bb       	out	0x1d, r18	; 29
 66e:	0f b6       	in	r0, 0x3f	; 63
 670:	f8 94       	cli
 672:	e2 9a       	sbi	0x1c, 2	; 28
 674:	e1 9a       	sbi	0x1c, 1	; 28
 676:	0f be       	out	0x3f, r0	; 63
 678:	01 96       	adiw	r24, 0x01	; 1
 67a:	08 95       	ret

0000067c <_exit>:
 67c:	f8 94       	cli

0000067e <__stop_program>:
 67e:	ff cf       	rjmp	.-2      	; 0x67e <__stop_program>
